; Function Attrs: mustprogress nounwind uwtable
define internal void @_ZN12_GLOBAL__N_119DarwinX86AsmBackendD0Ev(ptr noundef nonnull align 8 dereferenceable(312) %0) unnamed_addr #0 align 2 {
  store ptr getelementptr inbounds inrange(-16, 232) (i8, ptr @_ZTVN12_GLOBAL__N_119DarwinX86AsmBackendE, i64 16), ptr %0, align 8
  %2 = getelementptr inbounds nuw i8, ptr %0, i64 240
  tail call void @_ZNSt7__cxx1112basic_stringIcSt11char_traitsIcESaIcEED1Ev(ptr noundef nonnull align 8 dereferenceable(32) %2) #23
  store ptr getelementptr inbounds inrange(-16, 232) (i8, ptr @_ZTVN12_GLOBAL__N_113X86AsmBackendE, i64 16), ptr %0, align 8
  %3 = getelementptr inbounds i8, ptr %0, i64 56
  %4 = tail call noundef i64 @_ZNK4llvm15SmallVectorBaseIjE4sizeEv(ptr noundef nonnull align 8 dereferenceable(16) %3) #23
  %5 = load ptr, ptr %3, align 8
  %6 = getelementptr inbounds i8, ptr %0, i64 72
  %7 = icmp eq ptr %5, %6
  br i1 %7, label %_ZN4llvm6MCInstD2Ev.exit.i.i, label %8

8:                                                ; preds = %1
  tail call void @free(ptr noundef %5) #23
  br label %_ZN4llvm6MCInstD2Ev.exit.i.i

_ZN4llvm6MCInstD2Ev.exit.i.i:                     ; preds = %8, %1
  %9 = getelementptr inbounds nuw i8, ptr %0, i64 24
  %10 = load ptr, ptr %9, align 8
  %.not.i.i.i = icmp eq ptr %10, null
  br i1 %.not.i.i.i, label %_ZN12_GLOBAL__N_119DarwinX86AsmBackendD2Ev.exit, label %_ZNKSt14default_deleteIKN4llvm11MCInstrInfoEEclEPS2_.exit.i.i.i

_ZNKSt14default_deleteIKN4llvm11MCInstrInfoEEclEPS2_.exit.i.i.i: ; preds = %_ZN4llvm6MCInstD2Ev.exit.i.i
  tail call void @_ZdlPvm(ptr noundef nonnull %10, i64 noundef 48) #26
  br label %_ZN12_GLOBAL__N_119DarwinX86AsmBackendD2Ev.exit

_ZN12_GLOBAL__N_119DarwinX86AsmBackendD2Ev.exit:  ; preds = %_ZN4llvm6MCInstD2Ev.exit.i.i, %_ZNKSt14default_deleteIKN4llvm11MCInstrInfoEEclEPS2_.exit.i.i.i
  store ptr null, ptr %9, align 8
  tail call void @_ZN4llvm12MCAsmBackendD2Ev(ptr noundef nonnull align 8 dereferenceable(16) %0) #23
  tail call void @_ZdlPvm(ptr noundef nonnull %0, i64 noundef 312) #26
  ret void
}